(lp0
S'poi'
p1
aS'restricted_stock'
p2
aS'exercised_stock_options'
p3
aS'salary'
p4
aS'fractional_salary'
p5
aS'fractional_bonus'
p6
aS'fractional_restricted_stock'
p7
aS'long_term_incentive'
p8
aS'from_poi_to_this_person'
p9
aS'shared_receipt_with_poi'
p10
aS'fraction_from_poi'
p11
aS'fraction_to_poi'
p12
a.